target datalayout = "e-m:e-p270:32:32-p271:32:32-p272:64:64-i64:64-i128:128-f80:128-n8:16:32:64-S128"
target triple = "x86_64-pc-linux-gnu"

@_ZL14tashkeelMedial = internal constant [16 x i8] c"\00\01\00\00\00\00\00\01\00\01\00\01\00\01\00\01", align 16

; Function Attrs: inlinehint mustprogress nounwind uwtable
define internal noundef i32 @_ZL22isIsolatedTashkeelCharDs(i16 noundef zeroext %0) #3 {
  %2 = alloca i32, align 4
  %3 = alloca i16, align 2
  store i16 %0, ptr %3, align 2, !tbaa !16
  %4 = load i16, ptr %3, align 2, !tbaa !16
  %5 = zext i16 %4 to i32
  %6 = icmp sge i32 %5, 65136
  br i1 %6, label %7, label %28

7:                                                ; preds = %1
  %8 = load i16, ptr %3, align 2, !tbaa !16
  %9 = zext i16 %8 to i32
  %10 = icmp sle i32 %9, 65151
  br i1 %10, label %11, label %28

11:                                               ; preds = %7
  %12 = load i16, ptr %3, align 2, !tbaa !16
  %13 = zext i16 %12 to i32
  %14 = icmp ne i32 %13, 65139
  br i1 %14, label %15, label %28

15:                                               ; preds = %11
  %16 = load i16, ptr %3, align 2, !tbaa !16
  %17 = zext i16 %16 to i32
  %18 = icmp ne i32 %17, 65141
  br i1 %18, label %19, label %28

19:                                               ; preds = %15
  %20 = load i16, ptr %3, align 2, !tbaa !16
  %21 = zext i16 %20 to i32
  %22 = sub nsw i32 %21, 65136
  %23 = sext i32 %22 to i64
  %24 = getelementptr inbounds [16 x i8], ptr @_ZL14tashkeelMedial, i64 0, i64 %23
  %25 = load i8, ptr %24, align 1, !tbaa !27
  %26 = zext i8 %25 to i32
  %27 = sub nsw i32 1, %26
  store i32 %27, ptr %2, align 4
  br label %38

28:                                               ; preds = %15, %11, %7, %1
  %29 = load i16, ptr %3, align 2, !tbaa !16
  %30 = zext i16 %29 to i32
  %31 = icmp sge i32 %30, 64606
  br i1 %31, label %32, label %37

32:                                               ; preds = %28
  %33 = load i16, ptr %3, align 2, !tbaa !16
  %34 = zext i16 %33 to i32
  %35 = icmp sle i32 %34, 64611
  br i1 %35, label %36, label %37

36:                                               ; preds = %32
  store i32 1, ptr %2, align 4
  br label %38

37:                                               ; preds = %32, %28
  store i32 0, ptr %2, align 4
  br label %38

38:                                               ; preds = %37, %36, %19
  %39 = load i32, ptr %2, align 4
  ret i32 %39
}

; Function Attrs: inlinehint mustprogress nounwind uwtable
define internal noundef i32 @_ZL23isTashkeelOnTatweelCharDs(i16 noundef zeroext %0) #3 {
  %2 = alloca i32, align 4
  %3 = alloca i16, align 2
  store i16 %0, ptr %3, align 2, !tbaa !16
  %4 = load i16, ptr %3, align 2, !tbaa !16
  %5 = zext i16 %4 to i32
  %6 = icmp sge i32 %5, 65136
  br i1 %6, label %7, label %31

7:                                                ; preds = %1
  %8 = load i16, ptr %3, align 2, !tbaa !16
  %9 = zext i16 %8 to i32
  %10 = icmp sle i32 %9, 65151
  br i1 %10, label %11, label %31

11:                                               ; preds = %7
  %12 = load i16, ptr %3, align 2, !tbaa !16
  %13 = zext i16 %12 to i32
  %14 = icmp ne i32 %13, 65139
  br i1 %14, label %15, label %31

15:                                               ; preds = %11
  %16 = load i16, ptr %3, align 2, !tbaa !16
  %17 = zext i16 %16 to i32
  %18 = icmp ne i32 %17, 65141
  br i1 %18, label %19, label %31

19:                                               ; preds = %15
  %20 = load i16, ptr %3, align 2, !tbaa !16
  %21 = zext i16 %20 to i32
  %22 = icmp ne i32 %21, 65149
  br i1 %22, label %23, label %31

23:                                               ; preds = %19
  %24 = load i16, ptr %3, align 2, !tbaa !16
  %25 = zext i16 %24 to i32
  %26 = sub nsw i32 %25, 65136
  %27 = sext i32 %26 to i64
  %28 = getelementptr inbounds [16 x i8], ptr @_ZL14tashkeelMedial, i64 0, i64 %27
  %29 = load i8, ptr %28, align 1, !tbaa !27
  %30 = zext i8 %29 to i32
  store i32 %30, ptr %2, align 4
  br label %45

31:                                               ; preds = %19, %15, %11, %7, %1
  %32 = load i16, ptr %3, align 2, !tbaa !16
  %33 = zext i16 %32 to i32
  %34 = icmp sge i32 %33, 64754
  br i1 %34, label %35, label %39

35:                                               ; preds = %31
  %36 = load i16, ptr %3, align 2, !tbaa !16
  %37 = zext i16 %36 to i32
  %38 = icmp sle i32 %37, 64756
  br i1 %38, label %43, label %39

39:                                               ; preds = %35, %31
  %40 = load i16, ptr %3, align 2, !tbaa !16
  %41 = zext i16 %40 to i32
  %42 = icmp eq i32 %41, 65149
  br i1 %42, label %43, label %44

43:                                               ; preds = %39, %35
  store i32 2, ptr %2, align 4
  br label %45

44:                                               ; preds = %39
  store i32 0, ptr %2, align 4
  br label %45

45:                                               ; preds = %44, %43, %23
  %46 = load i32, ptr %2, align 4
  ret i32 %46
}

; Function Attrs: mustprogress uwtable
define internal noundef i32 @_ZL25handleTashkeelWithTatweelPDsiijP10UErrorCode(ptr noundef %0, i32 noundef %1, i32 noundef %2, i32 noundef %3, ptr noundef %4) #0 {
  %6 = alloca ptr, align 8
  %7 = alloca i32, align 4
  %8 = alloca i32, align 4
  %9 = alloca i32, align 4
  %10 = alloca ptr, align 8
  %11 = alloca i32, align 4
  store ptr %0, ptr %6, align 8, !tbaa !3
  store i32 %1, ptr %7, align 4, !tbaa !8
  store i32 %2, ptr %8, align 4, !tbaa !8
  store i32 %3, ptr %9, align 4, !tbaa !8
  store ptr %4, ptr %10, align 8, !tbaa !10
  call void @llvm.lifetime.start.p0(i64 4, ptr %11) #8
  store i32 0, ptr %11, align 4, !tbaa !8
  br label %12

12:                                               ; preds = %66, %5
  %13 = load i32, ptr %11, align 4, !tbaa !8
  %14 = load i32, ptr %7, align 4, !tbaa !8
  %15 = icmp slt i32 %13, %14
  br i1 %15, label %16, label %69

16:                                               ; preds = %12
  %17 = load ptr, ptr %6, align 8, !tbaa !3
  %18 = load i32, ptr %11, align 4, !tbaa !8
  %19 = sext i32 %18 to i64
  %20 = getelementptr inbounds i16, ptr %17, i64 %19
  %21 = load i16, ptr %20, align 2, !tbaa !16
  %22 = call noundef i32 @_ZL23isTashkeelOnTatweelCharDs(i16 noundef zeroext %21)
  %23 = icmp eq i32 %22, 1
  br i1 %23, label %24, label %29

24:                                               ; preds = %16
  %25 = load ptr, ptr %6, align 8, !tbaa !3
  %26 = load i32, ptr %11, align 4, !tbaa !8
  %27 = sext i32 %26 to i64
  %28 = getelementptr inbounds i16, ptr %25, i64 %27
  store i16 1600, ptr %28, align 2, !tbaa !16
  br label %65

29:                                               ; preds = %16
  %30 = load ptr, ptr %6, align 8, !tbaa !3
  %31 = load i32, ptr %11, align 4, !tbaa !8
  %32 = sext i32 %31 to i64
  %33 = getelementptr inbounds i16, ptr %30, i64 %32
  %34 = load i16, ptr %33, align 2, !tbaa !16
  %35 = call noundef i32 @_ZL23isTashkeelOnTatweelCharDs(i16 noundef zeroext %34)
  %36 = icmp eq i32 %35, 2
  br i1 %36, label %37, label %42

37:                                               ; preds = %29
  %38 = load ptr, ptr %6, align 8, !tbaa !3
  %39 = load i32, ptr %11, align 4, !tbaa !8
  %40 = sext i32 %39 to i64
  %41 = getelementptr inbounds i16, ptr %38, i64 %40
  store i16 -387, ptr %41, align 2, !tbaa !16
  br label %64

42:                                               ; preds = %29
  %43 = load ptr, ptr %6, align 8, !tbaa !3
  %44 = load i32, ptr %11, align 4, !tbaa !8
  %45 = sext i32 %44 to i64
  %46 = getelementptr inbounds i16, ptr %43, i64 %45
  %47 = load i16, ptr %46, align 2, !tbaa !16
  %48 = call noundef i32 @_ZL22isIsolatedTashkeelCharDs(i16 noundef zeroext %47)
  %49 = icmp ne i32 %48, 0
  br i1 %49, label %50, label %63

50:                                               ; preds = %42
  %51 = load ptr, ptr %6, align 8, !tbaa !3
  %52 = load i32, ptr %11, align 4, !tbaa !8
  %53 = sext i32 %52 to i64
  %54 = getelementptr inbounds i16, ptr %51, i64 %53
  %55 = load i16, ptr %54, align 2, !tbaa !16
  %56 = zext i16 %55 to i32
  %57 = icmp ne i32 %56, 65148
  br i1 %57, label %58, label %63

58:                                               ; preds = %50
  %59 = load ptr, ptr %6, align 8, !tbaa !3
  %60 = load i32, ptr %11, align 4, !tbaa !8
  %61 = sext i32 %60 to i64
  %62 = getelementptr inbounds i16, ptr %59, i64 %61
  store i16 32, ptr %62, align 2, !tbaa !16
  br label %63

63:                                               ; preds = %58, %50, %42
  br label %64

64:                                               ; preds = %63, %37
  br label %65

65:                                               ; preds = %64, %24
  br label %66

66:                                               ; preds = %65
  %67 = load i32, ptr %11, align 4, !tbaa !8
  %68 = add nsw i32 %67, 1
  store i32 %68, ptr %11, align 4, !tbaa !8
  br label %12, !llvm.loop !39

69:                                               ; preds = %12
  %70 = load i32, ptr %7, align 4, !tbaa !8
  call void @llvm.lifetime.end.p0(i64 4, ptr %11) #8
  ret i32 %70
}